target datalayout = "e-m:e-p270:32:32-p271:32:32-p272:64:64-i64:64-i128:128-f80:128-n8:16:32:64-S128"
target triple = "x86_64-pc-linux-gnu"

%struct.AVCodecTag = type { i32, i32 }
%struct.AVRational = type { i32, i32 }
%struct.MOVTrack = type { i32, i32, i32, i32, i64, i64, i32, i64, i64, i64, i32, i32, i32, i32, i32, i32, i32, ptr, ptr, i32, i32, i32, ptr, ptr, ptr, i32, i32, i32, i32, i32, i64, i64, i64, i32, i64, i32, i32, ptr, i32, i64, i32, i64, i32, i32, %struct.HintSampleQueue, ptr, ptr, i64, i32, i32, i32, ptr, i32, %struct.anon, ptr, %struct.MOVMuxCencContext, [256 x i32], i32, i32, i32, %struct.PacketList, ptr, i32, i32, ptr }
%struct.HintSampleQueue = type { i32, i32, ptr }
%struct.anon = type { i32, i32, i32, i32, i32, i32, i32 }
%struct.MOVMuxCencContext = type { ptr, ptr, i64, i64, i32, i32, i16, i64, ptr, i64, ptr, i32, i32, ptr, %struct.CodedBitstreamFragment }
%struct.CodedBitstreamFragment = type { ptr, i64, i64, ptr, i32, i32, ptr }
%struct.PacketList = type { ptr, ptr }
%struct.AVCodecParameters = type { i32, i32, i32, ptr, i32, ptr, i32, i32, i64, i32, i32, i32, i32, i32, i32, %struct.AVRational, %struct.AVRational, i32, i32, i32, i32, i32, i32, i32, %struct.AVChannelLayout, i32, i32, i32, i32, i32, i32 }
%struct.AVChannelLayout = type { i32, i32, %union.anon, ptr }
%union.anon = type { i64 }
%struct.mpeg4_bit_rate_values = type { i32, i32, i32 }

@.str.324 = private unnamed_addr constant [5 x i8] c"esds\00", align 1
@ff_mp4_obj_type = external constant [0 x %struct.AVCodecTag], align 4

; Function Attrs: nounwind uwtable
define internal i64 @update_size(ptr noundef %0, i64 noundef %1) #0 {
  %3 = alloca ptr, align 8
  %4 = alloca i64, align 8
  %5 = alloca i64, align 8
  store ptr %0, ptr %3, align 8, !tbaa !31
  store i64 %1, ptr %4, align 8, !tbaa !134
  call void @llvm.lifetime.start.p0(i64 8, ptr %5) #14
  %6 = load ptr, ptr %3, align 8, !tbaa !31
  %7 = call i64 @avio_tell(ptr noundef %6)
  store i64 %7, ptr %5, align 8, !tbaa !134
  %8 = load ptr, ptr %3, align 8, !tbaa !31
  %9 = load i64, ptr %4, align 8, !tbaa !134
  %10 = call i64 @avio_seek(ptr noundef %8, i64 noundef %9, i32 noundef 0)
  %11 = load ptr, ptr %3, align 8, !tbaa !31
  %12 = load i64, ptr %5, align 8, !tbaa !134
  %13 = load i64, ptr %4, align 8, !tbaa !134
  %14 = sub nsw i64 %12, %13
  %15 = trunc i64 %14 to i32
  call void @avio_wb32(ptr noundef %11, i32 noundef %15)
  %16 = load ptr, ptr %3, align 8, !tbaa !31
  %17 = load i64, ptr %5, align 8, !tbaa !134
  %18 = call i64 @avio_seek(ptr noundef %16, i64 noundef %17, i32 noundef 0)
  %19 = load i64, ptr %5, align 8, !tbaa !134
  %20 = load i64, ptr %4, align 8, !tbaa !134
  %21 = sub nsw i64 %19, %20
  call void @llvm.lifetime.end.p0(i64 8, ptr %5) #14
  ret i64 %21
}

; Function Attrs: nounwind uwtable
define internal void @put_descr(ptr noundef %0, i32 noundef %1, i32 noundef %2) #0 {
  %4 = alloca ptr, align 8
  %5 = alloca i32, align 4
  %6 = alloca i32, align 4
  %7 = alloca i32, align 4
  store ptr %0, ptr %4, align 8, !tbaa !31
  store i32 %1, ptr %5, align 4, !tbaa !32
  store i32 %2, ptr %6, align 4, !tbaa !32
  call void @llvm.lifetime.start.p0(i64 4, ptr %7) #14
  store i32 3, ptr %7, align 4, !tbaa !32
  %8 = load ptr, ptr %4, align 8, !tbaa !31
  %9 = load i32, ptr %5, align 4, !tbaa !32
  call void @avio_w8(ptr noundef %8, i32 noundef %9)
  br label %10

10:                                               ; preds = %20, %3
  %11 = load i32, ptr %7, align 4, !tbaa !32
  %12 = icmp sgt i32 %11, 0
  br i1 %12, label %13, label %23

13:                                               ; preds = %10
  %14 = load ptr, ptr %4, align 8, !tbaa !31
  %15 = load i32, ptr %6, align 4, !tbaa !32
  %16 = load i32, ptr %7, align 4, !tbaa !32
  %17 = mul nsw i32 7, %16
  %18 = lshr i32 %15, %17
  %19 = or i32 %18, 128
  call void @avio_w8(ptr noundef %14, i32 noundef %19)
  br label %20

20:                                               ; preds = %13
  %21 = load i32, ptr %7, align 4, !tbaa !32
  %22 = add nsw i32 %21, -1
  store i32 %22, ptr %7, align 4, !tbaa !32
  br label %10, !llvm.loop !393

23:                                               ; preds = %10
  %24 = load ptr, ptr %4, align 8, !tbaa !31
  %25 = load i32, ptr %6, align 4, !tbaa !32
  %26 = and i32 %25, 127
  call void @avio_w8(ptr noundef %24, i32 noundef %26)
  call void @llvm.lifetime.end.p0(i64 4, ptr %7) #14
  ret void
}

; Function Attrs: alwaysinline nounwind uwtable
define internal void @ffio_wfourcc(ptr noundef %0, ptr noundef %1) #6 {
  %3 = alloca ptr, align 8
  %4 = alloca ptr, align 8
  store ptr %0, ptr %3, align 8, !tbaa !31
  store ptr %1, ptr %4, align 8, !tbaa !38
  %5 = load ptr, ptr %3, align 8, !tbaa !31
  %6 = load ptr, ptr %4, align 8, !tbaa !38
  %7 = getelementptr inbounds i8, ptr %6, i64 0
  %8 = load i8, ptr %7, align 1, !tbaa !85
  %9 = zext i8 %8 to i32
  %10 = load ptr, ptr %4, align 8, !tbaa !38
  %11 = getelementptr inbounds i8, ptr %10, i64 1
  %12 = load i8, ptr %11, align 1, !tbaa !85
  %13 = zext i8 %12 to i32
  %14 = shl i32 %13, 8
  %15 = or i32 %9, %14
  %16 = load ptr, ptr %4, align 8, !tbaa !38
  %17 = getelementptr inbounds i8, ptr %16, i64 2
  %18 = load i8, ptr %17, align 1, !tbaa !85
  %19 = zext i8 %18 to i32
  %20 = shl i32 %19, 16
  %21 = or i32 %15, %20
  %22 = load ptr, ptr %4, align 8, !tbaa !38
  %23 = getelementptr inbounds i8, ptr %22, i64 3
  %24 = load i8, ptr %23, align 1, !tbaa !85
  %25 = zext i8 %24 to i32
  %26 = shl i32 %25, 24
  %27 = or i32 %21, %26
  call void @avio_wl32(ptr noundef %5, i32 noundef %27)
  ret void
}

; Function Attrs: alwaysinline nounwind uwtable
define internal i64 @avio_tell(ptr noundef %0) #6 {
  %2 = alloca ptr, align 8
  store ptr %0, ptr %2, align 8, !tbaa !31
  %3 = load ptr, ptr %2, align 8, !tbaa !31
  %4 = call i64 @avio_seek(ptr noundef %3, i64 noundef 0, i32 noundef 1)
  ret i64 %4
}

; Function Attrs: nounwind uwtable
define internal i32 @mov_write_esds_tag(ptr noundef %0, ptr noundef %1) #0 {
  %3 = alloca ptr, align 8
  %4 = alloca ptr, align 8
  %5 = alloca %struct.mpeg4_bit_rate_values, align 4
  %6 = alloca { i64, i32 }, align 8
  %7 = alloca i64, align 8
  %8 = alloca i32, align 4
  store ptr %0, ptr %3, align 8, !tbaa !31
  store ptr %1, ptr %4, align 8, !tbaa !47
  call void @llvm.lifetime.start.p0(i64 12, ptr %5) #14
  %9 = load ptr, ptr %4, align 8, !tbaa !47
  %10 = call { i64, i32 } @calculate_mpeg4_bit_rates(ptr noundef %9)
  store { i64, i32 } %10, ptr %6, align 8
  call void @llvm.memcpy.p0.p0.i64(ptr align 4 %5, ptr align 8 %6, i64 12, i1 false)
  call void @llvm.lifetime.start.p0(i64 8, ptr %7) #14
  %11 = load ptr, ptr %3, align 8, !tbaa !31
  %12 = call i64 @avio_tell(ptr noundef %11)
  store i64 %12, ptr %7, align 8, !tbaa !134
  call void @llvm.lifetime.start.p0(i64 4, ptr %8) #14
  %13 = load ptr, ptr %4, align 8, !tbaa !47
  %14 = getelementptr inbounds nuw %struct.MOVTrack, ptr %13, i32 0, i32 21
  %15 = load i32, ptr %14, align 8, !tbaa !91
  %16 = icmp ne i32 %15, 0
  br i1 %16, label %17, label %22

17:                                               ; preds = %2
  %18 = load ptr, ptr %4, align 8, !tbaa !47
  %19 = getelementptr inbounds nuw %struct.MOVTrack, ptr %18, i32 0, i32 21
  %20 = load i32, ptr %19, align 8, !tbaa !91
  %21 = add nsw i32 5, %20
  br label %23

22:                                               ; preds = %2
  br label %23

23:                                               ; preds = %22, %17
  %24 = phi i32 [ %21, %17 ], [ 0, %22 ]
  store i32 %24, ptr %8, align 4, !tbaa !32
  %25 = load ptr, ptr %3, align 8, !tbaa !31
  call void @avio_wb32(ptr noundef %25, i32 noundef 0)
  %26 = load ptr, ptr %3, align 8, !tbaa !31
  call void @ffio_wfourcc(ptr noundef %26, ptr noundef @.str.324)
  %27 = load ptr, ptr %3, align 8, !tbaa !31
  call void @avio_wb32(ptr noundef %27, i32 noundef 0)
  %28 = load ptr, ptr %3, align 8, !tbaa !31
  %29 = load i32, ptr %8, align 4, !tbaa !32
  %30 = add nsw i32 21, %29
  %31 = add nsw i32 %30, 5
  %32 = add nsw i32 %31, 1
  call void @put_descr(ptr noundef %28, i32 noundef 3, i32 noundef %32)
  %33 = load ptr, ptr %3, align 8, !tbaa !31
  %34 = load ptr, ptr %4, align 8, !tbaa !47
  %35 = getelementptr inbounds nuw %struct.MOVTrack, ptr %34, i32 0, i32 15
  %36 = load i32, ptr %35, align 4, !tbaa !321
  call void @avio_wb16(ptr noundef %33, i32 noundef %36)
  %37 = load ptr, ptr %3, align 8, !tbaa !31
  call void @avio_w8(ptr noundef %37, i32 noundef 0)
  %38 = load ptr, ptr %3, align 8, !tbaa !31
  %39 = load i32, ptr %8, align 4, !tbaa !32
  %40 = add nsw i32 13, %39
  call void @put_descr(ptr noundef %38, i32 noundef 4, i32 noundef %40)
  %41 = load ptr, ptr %4, align 8, !tbaa !47
  %42 = getelementptr inbounds nuw %struct.MOVTrack, ptr %41, i32 0, i32 18
  %43 = load ptr, ptr %42, align 8, !tbaa !52
  %44 = getelementptr inbounds nuw %struct.AVCodecParameters, ptr %43, i32 0, i32 1
  %45 = load i32, ptr %44, align 4, !tbaa !81
  %46 = icmp eq i32 %45, 86016
  br i1 %46, label %54, label %47

47:                                               ; preds = %23
  %48 = load ptr, ptr %4, align 8, !tbaa !47
  %49 = getelementptr inbounds nuw %struct.MOVTrack, ptr %48, i32 0, i32 18
  %50 = load ptr, ptr %49, align 8, !tbaa !52
  %51 = getelementptr inbounds nuw %struct.AVCodecParameters, ptr %50, i32 0, i32 1
  %52 = load i32, ptr %51, align 4, !tbaa !81
  %53 = icmp eq i32 %52, 86017
  br i1 %53, label %54, label %63

54:                                               ; preds = %47, %23
  %55 = load ptr, ptr %4, align 8, !tbaa !47
  %56 = getelementptr inbounds nuw %struct.MOVTrack, ptr %55, i32 0, i32 18
  %57 = load ptr, ptr %56, align 8, !tbaa !52
  %58 = getelementptr inbounds nuw %struct.AVCodecParameters, ptr %57, i32 0, i32 25
  %59 = load i32, ptr %58, align 8, !tbaa !279
  %60 = icmp sgt i32 %59, 24000
  br i1 %60, label %61, label %63

61:                                               ; preds = %54
  %62 = load ptr, ptr %3, align 8, !tbaa !31
  call void @avio_w8(ptr noundef %62, i32 noundef 107)
  br label %71

63:                                               ; preds = %54, %47
  %64 = load ptr, ptr %3, align 8, !tbaa !31
  %65 = load ptr, ptr %4, align 8, !tbaa !47
  %66 = getelementptr inbounds nuw %struct.MOVTrack, ptr %65, i32 0, i32 18
  %67 = load ptr, ptr %66, align 8, !tbaa !52
  %68 = getelementptr inbounds nuw %struct.AVCodecParameters, ptr %67, i32 0, i32 1
  %69 = load i32, ptr %68, align 4, !tbaa !81
  %70 = call i32 @ff_codec_get_tag(ptr noundef @ff_mp4_obj_type, i32 noundef %69)
  call void @avio_w8(ptr noundef %64, i32 noundef %70)
  br label %71

71:                                               ; preds = %63, %61
  %72 = load ptr, ptr %4, align 8, !tbaa !47
  %73 = getelementptr inbounds nuw %struct.MOVTrack, ptr %72, i32 0, i32 18
  %74 = load ptr, ptr %73, align 8, !tbaa !52
  %75 = getelementptr inbounds nuw %struct.AVCodecParameters, ptr %74, i32 0, i32 1
  %76 = load i32, ptr %75, align 4, !tbaa !81
  %77 = icmp eq i32 %76, 94208
  br i1 %77, label %78, label %80

78:                                               ; preds = %71
  %79 = load ptr, ptr %3, align 8, !tbaa !31
  call void @avio_w8(ptr noundef %79, i32 noundef 225)
  br label %92

80:                                               ; preds = %71
  %81 = load ptr, ptr %4, align 8, !tbaa !47
  %82 = getelementptr inbounds nuw %struct.MOVTrack, ptr %81, i32 0, i32 18
  %83 = load ptr, ptr %82, align 8, !tbaa !52
  %84 = getelementptr inbounds nuw %struct.AVCodecParameters, ptr %83, i32 0, i32 0
  %85 = load i32, ptr %84, align 8, !tbaa !191
  %86 = icmp eq i32 %85, 1
  br i1 %86, label %87, label %89

87:                                               ; preds = %80
  %88 = load ptr, ptr %3, align 8, !tbaa !31
  call void @avio_w8(ptr noundef %88, i32 noundef 21)
  br label %91

89:                                               ; preds = %80
  %90 = load ptr, ptr %3, align 8, !tbaa !31
  call void @avio_w8(ptr noundef %90, i32 noundef 17)
  br label %91

91:                                               ; preds = %89, %87
  br label %92

92:                                               ; preds = %91, %78
  %93 = load ptr, ptr %3, align 8, !tbaa !31
  %94 = getelementptr inbounds nuw %struct.mpeg4_bit_rate_values, ptr %5, i32 0, i32 0
  %95 = load i32, ptr %94, align 4, !tbaa !363
  call void @avio_wb24(ptr noundef %93, i32 noundef %95)
  %96 = load ptr, ptr %3, align 8, !tbaa !31
  %97 = getelementptr inbounds nuw %struct.mpeg4_bit_rate_values, ptr %5, i32 0, i32 1
  %98 = load i32, ptr %97, align 4, !tbaa !361
  call void @avio_wb32(ptr noundef %96, i32 noundef %98)
  %99 = load ptr, ptr %3, align 8, !tbaa !31
  %100 = getelementptr inbounds nuw %struct.mpeg4_bit_rate_values, ptr %5, i32 0, i32 2
  %101 = load i32, ptr %100, align 4, !tbaa !322
  call void @avio_wb32(ptr noundef %99, i32 noundef %101)
  %102 = load ptr, ptr %4, align 8, !tbaa !47
  %103 = getelementptr inbounds nuw %struct.MOVTrack, ptr %102, i32 0, i32 21
  %104 = load i32, ptr %103, align 8, !tbaa !91
  %105 = icmp ne i32 %104, 0
  br i1 %105, label %106, label %118

106:                                              ; preds = %92
  %107 = load ptr, ptr %3, align 8, !tbaa !31
  %108 = load ptr, ptr %4, align 8, !tbaa !47
  %109 = getelementptr inbounds nuw %struct.MOVTrack, ptr %108, i32 0, i32 21
  %110 = load i32, ptr %109, align 8, !tbaa !91
  call void @put_descr(ptr noundef %107, i32 noundef 5, i32 noundef %110)
  %111 = load ptr, ptr %3, align 8, !tbaa !31
  %112 = load ptr, ptr %4, align 8, !tbaa !47
  %113 = getelementptr inbounds nuw %struct.MOVTrack, ptr %112, i32 0, i32 22
  %114 = load ptr, ptr %113, align 8, !tbaa !94
  %115 = load ptr, ptr %4, align 8, !tbaa !47
  %116 = getelementptr inbounds nuw %struct.MOVTrack, ptr %115, i32 0, i32 21
  %117 = load i32, ptr %116, align 8, !tbaa !91
  call void @avio_write(ptr noundef %111, ptr noundef %114, i32 noundef %117)
  br label %118

118:                                              ; preds = %106, %92
  %119 = load ptr, ptr %3, align 8, !tbaa !31
  call void @put_descr(ptr noundef %119, i32 noundef 6, i32 noundef 1)
  %120 = load ptr, ptr %3, align 8, !tbaa !31
  call void @avio_w8(ptr noundef %120, i32 noundef 2)
  %121 = load ptr, ptr %3, align 8, !tbaa !31
  %122 = load i64, ptr %7, align 8, !tbaa !134
  %123 = call i64 @update_size(ptr noundef %121, i64 noundef %122)
  %124 = trunc i64 %123 to i32
  call void @llvm.lifetime.end.p0(i64 4, ptr %8) #14
  call void @llvm.lifetime.end.p0(i64 8, ptr %7) #14
  call void @llvm.lifetime.end.p0(i64 12, ptr %5) #14
  ret i32 %124
}