; Function Attrs: nounwind uwtable
define internal fastcc noundef i32 @mov_write_esds_tag(ptr noundef %0, ptr noundef readonly captures(none) %1) unnamed_addr #0 {
  %3 = tail call fastcc { i64, i32 } @calculate_mpeg4_bit_rates(ptr noundef %1)
  %4 = tail call i64 @avio_seek(ptr noundef %0, i64 noundef 0, i32 noundef 1) #16
  %5 = getelementptr inbounds nuw i8, ptr %1, i64 120
  %6 = load i32, ptr %5, align 8, !tbaa !94
  %.not = icmp eq i32 %6, 0
  %7 = add nsw i32 %6, 5
  %spec.select = select i1 %.not, i32 0, i32 %7
  tail call void @avio_wb32(ptr noundef %0, i32 noundef 0) #16
  tail call void @avio_wl32(ptr noundef %0, i32 noundef 1935962981) #16
  tail call void @avio_wb32(ptr noundef %0, i32 noundef 0) #16
  %8 = add nsw i32 %spec.select, 27
  tail call void @avio_w8(ptr noundef %0, i32 noundef 3) #16
  br label %9

9:                                                ; preds = %9, %2
  %.08.i = phi i32 [ 3, %2 ], [ %13, %9 ]
  %10 = mul nuw nsw i32 %.08.i, 7
  %11 = lshr i32 %8, %10
  %12 = or i32 %11, 128
  tail call void @avio_w8(ptr noundef %0, i32 noundef %12) #16
  %13 = add nsw i32 %.08.i, -1
  %14 = icmp samesign ugt i32 %.08.i, 1
  br i1 %14, label %9, label %put_descr.exit, !llvm.loop !355

put_descr.exit:                                   ; preds = %9
  %15 = and i32 %8, 127
  tail call void @avio_w8(ptr noundef %0, i32 noundef %15) #16
  %16 = getelementptr inbounds nuw i8, ptr %1, i64 84
  %17 = load i32, ptr %16, align 4, !tbaa !215
  tail call void @avio_wb16(ptr noundef %0, i32 noundef %17) #16
  tail call void @avio_w8(ptr noundef %0, i32 noundef 0) #16
  %18 = add nsw i32 %spec.select, 13
  tail call void @avio_w8(ptr noundef %0, i32 noundef 4) #16
  br label %19

19:                                               ; preds = %19, %put_descr.exit
  %.08.i41 = phi i32 [ 3, %put_descr.exit ], [ %23, %19 ]
  %20 = mul nuw nsw i32 %.08.i41, 7
  %21 = lshr i32 %18, %20
  %22 = or i32 %21, 128
  tail call void @avio_w8(ptr noundef %0, i32 noundef %22) #16
  %23 = add nsw i32 %.08.i41, -1
  %24 = icmp samesign ugt i32 %.08.i41, 1
  br i1 %24, label %19, label %put_descr.exit42, !llvm.loop !355

put_descr.exit42:                                 ; preds = %19
  %.fca.0.extract = extractvalue { i64, i32 } %3, 0
  %.fca.1.extract = extractvalue { i64, i32 } %3, 1
  %25 = and i32 %18, 127
  tail call void @avio_w8(ptr noundef %0, i32 noundef %25) #16
  %26 = getelementptr inbounds nuw i8, ptr %1, i64 104
  %27 = load ptr, ptr %26, align 8, !tbaa !46
  %28 = getelementptr inbounds nuw i8, ptr %27, i64 4
  %29 = load i32, ptr %28, align 4, !tbaa !84
  %30 = and i32 %29, -2
  %switch = icmp eq i32 %30, 86016
  br i1 %switch, label %31, label %35

31:                                               ; preds = %put_descr.exit42
  %32 = getelementptr inbounds nuw i8, ptr %27, i64 152
  %33 = load i32, ptr %32, align 8, !tbaa !217
  %34 = icmp sgt i32 %33, 24000
  br i1 %34, label %37, label %35

35:                                               ; preds = %put_descr.exit42, %31
  %36 = tail call i32 @ff_codec_get_tag(ptr noundef nonnull @ff_mp4_obj_type, i32 noundef %29) #16
  br label %37

37:                                               ; preds = %31, %35
  %.sink = phi i32 [ %36, %35 ], [ 107, %31 ]
  tail call void @avio_w8(ptr noundef %0, i32 noundef %.sink) #16
  %38 = load ptr, ptr %26, align 8, !tbaa !46
  %39 = getelementptr inbounds nuw i8, ptr %38, i64 4
  %40 = load i32, ptr %39, align 4, !tbaa !84
  %41 = icmp eq i32 %40, 94208
  br i1 %41, label %45, label %42

42:                                               ; preds = %37
  %43 = load i32, ptr %38, align 8, !tbaa !177
  %44 = icmp eq i32 %43, 1
  %. = select i1 %44, i32 21, i32 17
  br label %45

45:                                               ; preds = %42, %37
  %.sink47 = phi i32 [ 225, %37 ], [ %., %42 ]
  tail call void @avio_w8(ptr noundef %0, i32 noundef %.sink47) #16
  %.sroa.03.0.extract.trunc = trunc i64 %.fca.0.extract to i32
  tail call void @avio_wb24(ptr noundef %0, i32 noundef %.sroa.03.0.extract.trunc) #16
  %.sroa.03.4.extract.shift = lshr i64 %.fca.0.extract, 32
  %.sroa.03.4.extract.trunc = trunc nuw i64 %.sroa.03.4.extract.shift to i32
  tail call void @avio_wb32(ptr noundef %0, i32 noundef %.sroa.03.4.extract.trunc) #16
  tail call void @avio_wb32(ptr noundef %0, i32 noundef %.fca.1.extract) #16
  %46 = load i32, ptr %5, align 8, !tbaa !94
  %.not40 = icmp eq i32 %46, 0
  br i1 %.not40, label %58, label %47

47:                                               ; preds = %45
  tail call void @avio_w8(ptr noundef %0, i32 noundef 5) #16
  br label %48

48:                                               ; preds = %48, %47
  %.08.i43 = phi i32 [ 3, %47 ], [ %52, %48 ]
  %49 = mul nuw nsw i32 %.08.i43, 7
  %50 = lshr i32 %46, %49
  %51 = or i32 %50, 128
  tail call void @avio_w8(ptr noundef %0, i32 noundef %51) #16
  %52 = add nsw i32 %.08.i43, -1
  %53 = icmp samesign ugt i32 %.08.i43, 1
  br i1 %53, label %48, label %put_descr.exit44, !llvm.loop !355

put_descr.exit44:                                 ; preds = %48
  %54 = and i32 %46, 127
  tail call void @avio_w8(ptr noundef %0, i32 noundef %54) #16
  %55 = getelementptr inbounds nuw i8, ptr %1, i64 128
  %56 = load ptr, ptr %55, align 8, !tbaa !97
  %57 = load i32, ptr %5, align 8, !tbaa !94
  tail call void @avio_write(ptr noundef %0, ptr noundef %56, i32 noundef %57) #16
  br label %58

58:                                               ; preds = %put_descr.exit44, %45
  tail call void @avio_w8(ptr noundef %0, i32 noundef 6) #16
  br label %59

59:                                               ; preds = %59, %58
  %.08.i45 = phi i32 [ 3, %58 ], [ %63, %59 ]
  %60 = mul nuw nsw i32 %.08.i45, 7
  %61 = lshr i32 1, %60
  %62 = or disjoint i32 %61, 128
  tail call void @avio_w8(ptr noundef %0, i32 noundef %62) #16
  %63 = add nsw i32 %.08.i45, -1
  %64 = icmp samesign ugt i32 %.08.i45, 1
  br i1 %64, label %59, label %put_descr.exit46, !llvm.loop !355

put_descr.exit46:                                 ; preds = %59
  tail call void @avio_w8(ptr noundef %0, i32 noundef 1) #16
  tail call void @avio_w8(ptr noundef %0, i32 noundef 2) #16
  %65 = tail call i64 @avio_seek(ptr noundef %0, i64 noundef 0, i32 noundef 1) #16
  %66 = tail call i64 @avio_seek(ptr noundef %0, i64 noundef %4, i32 noundef 0) #16
  %67 = sub nsw i64 %65, %4
  %68 = trunc i64 %67 to i32
  tail call void @avio_wb32(ptr noundef %0, i32 noundef %68) #16
  %69 = tail call i64 @avio_seek(ptr noundef %0, i64 noundef %65, i32 noundef 0) #16
  ret i32 %68
}